Certificate:
    Data:
        Version: 3 (0x2)
        Serial Number: 2 (0x2)
    Signature Algorithm: sha256WithRSAEncryption
        Issuer: C=cn, ST=sh, L=sh, O=tju, OU=cs, CN=cs/emailAddress=cs
        Validity
            Not Before: Jan 14 06:00:33 2018 GMT
            Not After : Jan 14 06:00:33 2019 GMT
        Subject: C=cn, ST=sh, O=tju, OU=cs, CN=air/emailAddress=ds
        Subject Public Key Info:
            Public Key Algorithm: rsaEncryption
                Public-Key: (1024 bit)
                Modulus:
                    00:bd:a9:a8:43:73:d8:9f:4b:3a:56:c2:b7:f5:fe:
                    08:f7:ee:7b:08:c8:f6:61:c3:90:f0:4a:95:e9:a6:
                    b6:bd:60:9d:e6:3e:57:ef:50:d8:c6:bf:34:b7:ae:
                    5f:72:1c:2c:77:d8:9c:81:df:5e:71:65:b6:3b:c1:
                    2a:d2:d7:0a:3c:1a:33:44:a4:97:ad:b7:48:4c:8d:
                    46:ea:63:c7:50:ac:df:d3:22:df:ac:7e:25:06:f0:
                    2c:0b:76:89:eb:c6:a1:e4:f5:34:eb:73:9f:a5:73:
                    e5:75:32:5e:88:d1:98:16:4b:39:99:dc:74:75:47:
                    3c:47:5c:71:9f:b8:17:fa:b9
                Exponent: 65537 (0x10001)
        X509v3 extensions:
            X509v3 Basic Constraints: 
                CA:FALSE
            Netscape Comment: 
                OpenSSL Generated Certificate
            X509v3 Subject Key Identifier: 
                AF:74:40:0B:46:07:B4:ED:E5:34:FA:8F:63:CC:11:CB:4C:B8:69:8C
            X509v3 Authority Key Identifier: 
                keyid:AA:F5:06:77:A7:3D:3F:33:6C:90:3B:17:22:A3:17:85:6C:83:36:28

    Signature Algorithm: sha256WithRSAEncryption
         92:f0:e8:4d:13:39:d7:c2:02:6b:7c:f4:72:4e:77:fb:9f:5a:
         33:87:18:24:6e:43:f0:91:23:0e:f5:ec:1e:ce:7c:4c:d4:aa:
         db:6c:43:1a:42:52:33:c5:2b:7f:fe:1e:41:0f:82:30:24:d6:
         2c:0c:73:1c:ac:a4:96:46:8e:b1:14:c7:6b:d6:a5:f5:dd:8a:
         75:e7:6e:f1:10:3d:55:1a:d7:d2:2d:9e:eb:18:bb:49:83:65:
         80:20:98:d3:85:d7:c6:74:fa:7a:9b:20:6a:f4:c3:ca:81:5b:
         c6:ef:31:d3:65:ac:b7:43:9d:22:cf:77:69:79:fc:be:2d:eb:
         00:61
-----BEGIN CERTIFICATE-----
MIICqTCCAhKgAwIBAgIBAjANBgkqhkiG9w0BAQsFADBiMQswCQYDVQQGEwJjbjEL
MAkGA1UECAwCc2gxCzAJBgNVBAcMAnNoMQwwCgYDVQQKDAN0anUxCzAJBgNVBAsM
AmNzMQswCQYDVQQDDAJjczERMA8GCSqGSIb3DQEJARYCY3MwHhcNMTgwMTE0MDYw
MDMzWhcNMTkwMTE0MDYwMDMzWjBWMQswCQYDVQQGEwJjbjELMAkGA1UECAwCc2gx
DDAKBgNVBAoMA3RqdTELMAkGA1UECwwCY3MxDDAKBgNVBAMMA2FpcjERMA8GCSqG
SIb3DQEJARYCZHMwgZ8wDQYJKoZIhvcNAQEBBQADgY0AMIGJAoGBAL2pqENz2J9L
OlbCt/X+CPfuewjI9mHDkPBKlemmtr1gneY+V+9Q2Ma/NLeuX3IcLHfYnIHfXnFl
tjvBKtLXCjwaM0Skl623SEyNRupjx1Cs39Mi36x+JQbwLAt2ievGoeT1NOtzn6Vz
5XUyXojRmBZLOZncdHVHPEdccZ+4F/q5AgMBAAGjezB5MAkGA1UdEwQCMAAwLAYJ
YIZIAYb4QgENBB8WHU9wZW5TU0wgR2VuZXJhdGVkIENlcnRpZmljYXRlMB0GA1Ud
DgQWBBSvdEALRge07eU0+o9jzBHLTLhpjDAfBgNVHSMEGDAWgBSq9QZ3pz0/M2yQ
OxcioxeFbIM2KDANBgkqhkiG9w0BAQsFAAOBgQCS8OhNEznXwgJrfPRyTnf7n1oz
hxgkbkPwkSMO9eweznxM1KrbbEMaQlIzxSt//h5BD4IwJNYsDHMcrKSWRo6xFMdr
1qX13Yp1527xED1VGtfSLZ7rGLtJg2WAIJjThdfGdPp6myBq9MPKgVvG7zHTZay3
Q50iz3dpefy+LesAYQ==
-----END CERTIFICATE-----
